ccopy_reg
_reconstructor
p1
(cdebian_linux.config
ConfigCore
p2
c__builtin__
dict
p3
(dp4
(S'image'
S'amd64'
p5
tp6
(dp7
S'suggests'
p8
S'crda'
p9
sS'configs'
p10
(lp11
S'kernelarch-x86/config'
p12
asS'bootloaders'
p13
(lp14
S'grub-pc'
p15
aS'extlinux'
p16
aS'grub-efi-amd64'
p17
ass(S'build'
S'armhf'
p18
NS'sunxi-sun4i'
tp19
(dp20
S'debug-info'
p21
I00
ss(S'base'
p22
g5
S'none'
p23
tp24
(dp25
S'implicit-flavour'
p26
I01
sS'flavours'
p27
(lp28
S'sunxi-amd64'
p29
ass(S'build'
g5
NS'sunxi-amd64'
tp30
(dp31
S'debug-info'
p32
I00
ss(S'image'
p33
tp34
(dp35
S'initramfs-generators'
p36
(lp37
S'initramfs-tools'
p38
aS'initramfs-fallback'
p39
asS'type'
p40
S'plain'
p41
ss(S'build'
S'i386'
p42
NS'sunxi-686'
tp43
(dp44
S'debug-info'
p45
I00
ss(S'image'
g5
NS'sunxi-amd64'
tp46
(dp47
S'configs'
p48
(lp49
S'kernelarch-x86/config-arch-64'
p50
ass(S'base'
g5
tp51
(dp52
S'kernel-arch'
p53
S'x86'
p54
sS'featuresets'
p55
(lp56
g23
ass(S'version'
p57
tp58
(dp59
S'abiname'
p60
S'3.4-29.sunxi.1'
p61
sS'source'
p62
V3.4-1
p63
ss(S'description'
g5
NS'sunxi-amd64'
tp64
(dp65
S'hardware'
p66
S'64-bit PCs'
p67
sS'hardware-long'
p68
S'PCs with AMD64 or Intel 64 processors'
p69
ss(S'base'
g42
tp70
(dp71
S'kernel-arch'
p72
S'x86'
p73
sg55
(lp74
g23
ass(S'image'
g42
NS'sunxi-686'
tp75
(dp76
S'configs'
p77
(lp78
S'kernelarch-x86/config-arch-32'
p79
asS'recommends'
p80
S'libc6-i686'
p81
ss(S'description'
g42
NS'sunxi-686'
tp82
(dp83
S'hardware'
p84
S'modern PCs'
p85
sS'hardware-long'
p86
S'PCs with Intel Pentium Pro/II/III/4/4M/D/M, Xeon, Celeron, Core or Atom; AMD Geode LX/NX, Athlon (K7), Duron, Opteron, Sempron, Turion or Phenom; Transmeta Efficeon; VIA C3 "Nehemiah" or C7 processors'
p87
ss(S'image'
p88
g18
tp89
(dp90
S'suggests'
p91
S'fdutils'
p92
ss(S'abi'
p93
tp94
(dp95
S'abiname'
p96
S'29.sunxi.1'
p97
ss(S'image'
g42
tp98
(dp99
S'suggests'
p100
S'crda'
p101
sS'configs'
p102
(lp103
S'kernelarch-x86/config'
p104
asS'bootloaders'
p105
(lp106
S'grub-pc'
p107
aS'extlinux'
p108
ass(g22
g42
g23
tp109
(dp110
g26
I01
sg27
(lp111
S'sunxi-686'
p112
ass(S'image'
g18
NS'sunxi-sun4i'
tp113
(dp114
S'configs'
p115
(lp116
S'armhf/config.sun4i'
p117
asS'recommends'
p118
S'u-boot-tools'
p119
ss(S'description'
g18
NS'sunxi-sun4i'
tp120
(dp121
S'hardware'
p122
S'Allwinner A10'
p123
sS'hardware-long'
p124
S'boards with Allwinner A10 processors'
p125
ss(g22
g18
g23
tp126
(dp127
g26
I01
sg27
(lp128
S'sunxi-sun4i'
p129
ass(S'base'
p130
g18
tp131
(dp132
S'kernel-arch'
p133
S'arm'
p134
sg55
(lp135
g23
ass(S'base'
p136
tp137
(dp138
S'arches'
p139
(lp140
S'amd64'
p141
aS'armhf'
p142
aS'i386'
p143
asS'featuresets'
p144
(lp145
S'none'
p146
asS'compiler'
p147
S'gcc-4.7'
p148
ss(S'relations'
p149
tp150
(dp151
S'initramfs-fallback'
p152
S'linux-initramfs-tool'
p153
sS'lilo'
p154
S'lilo (>= 22.8-8.2~)'
p155
sS'gcc-4.7'
p156
S'gcc-4.7'
p157
sS'initramfs-tools'
p158
S'initramfs-tools (>= 0.99~)'
p159
sS'elilo'
p160
S'elilo (>= 3.12-3.1~)'
p161
sstRp162
.